-----BEGIN RSA PRIVATE KEY-----
MIICXQIBAAKBgQDDnnf2zF1k71lJHCh22nDoUCf3slm86DideKgoWtsGGvbYlocA
mSrSXv00COsuTTNfeeNVAo8F69+zQrQHe1Yqf4oVAP6ooI4nWrkP6JPgOjDI1plW
brfBtmkFzE5aVVy4E3D8MV1B6sVgcAdhEeI/zg2M4UBbwdfzYz7LUw6+7wIDAQAB
AoGAIPMtY83SoXDLikwK6NIsmIT/5nINOYuoFaZANOPw5pteHudkAA7Mrri/T6d8
7cSlNZzTVPtkWev8NzayGlyFC8IXyqnbyTDrKmflClBbPH9mZpKJ6v6Gj4aeG0FH
T3eFRZBN1agmeg8qtbP6H1PHQP/yI4N/jxynPZ3zQBOf26kCQQDnVL7NmQhnGRF6
dWoewCsdRa+CUaXQw/vd7vE0w5goPbAboT3UTw0d0+ChYBtLGTtxpVnC6Axwb9Tb
x38ZDy0dAkEA2HrMRZFinTbzWA5Z2nz6dgTFfzetFO4LKGxO6DtcMDYsXR8gKICx
Y2Kx888Dl9WLiKa727GaMfmz9uBTsmG6ewJAWwo/DSrs46Y5+re6y99VGHAUYnU/
jKmUtgMTanCPsUaVyEnsy2FRCCwae2gXVbbYbiFk8g/g1V8tplEc8//FAQJBANCu
T4wggjebaSlRbDy6jZaHMvtX6Hlsn0TwY4Bq+IthLZL3FkD1DgsIcRLeVFBhgojQ
cfduVX4nf9xUk1o561ECQQDBSiYLWiKysuGuF6I+yqi9A0eKHyAGSIY4XkG3icdw
HUi3L6MJ9fWnxsa/k6ABBVyzE15y+BDQ1zFypfvpb7mn
-----END RSA PRIVATE KEY-----
Certificate:
    Data:
        Version: 1 (0x0)
        Serial Number: 3 (0x3)
        Signature Algorithm: md5WithRSAEncryption
        Issuer: O=Cavisson Systems, Inc./emailAddress=info@cavisson.com, L=Fremont, ST=California, C=US, CN=Root
        Validity
            Not Before: Aug 11 14:27:43 2009 GMT
            Not After : Aug  9 14:27:43 2019 GMT
        Subject: C=US, ST=California, O=Cavisson Systems, Inc., CN=Server
        Subject Public Key Info:
            Public Key Algorithm: rsaEncryption
            RSA Public Key: (1024 bit)
                Modulus (1024 bit):
                    00:c3:9e:77:f6:cc:5d:64:ef:59:49:1c:28:76:da:
                    70:e8:50:27:f7:b2:59:bc:e8:38:9d:78:a8:28:5a:
                    db:06:1a:f6:d8:96:87:00:99:2a:d2:5e:fd:34:08:
                    eb:2e:4d:33:5f:79:e3:55:02:8f:05:eb:df:b3:42:
                    b4:07:7b:56:2a:7f:8a:15:00:fe:a8:a0:8e:27:5a:
                    b9:0f:e8:93:e0:3a:30:c8:d6:99:56:6e:b7:c1:b6:
                    69:05:cc:4e:5a:55:5c:b8:13:70:fc:31:5d:41:ea:
                    c5:60:70:07:61:11:e2:3f:ce:0d:8c:e1:40:5b:c1:
                    d7:f3:63:3e:cb:53:0e:be:ef
                Exponent: 65537 (0x10001)
    Signature Algorithm: md5WithRSAEncryption
        7f:d7:e8:90:5d:ac:6f:f5:e9:4b:83:d0:2b:cd:a2:50:a8:f9:
        f1:4f:de:dd:7c:87:6a:f8:96:11:00:46:e1:c4:2e:b8:fd:9a:
        a7:bd:16:e7:df:46:b3:f2:fb:0b:63:e9:73:94:9a:c2:c6:3f:
        92:bf:f3:a7:81:eb:80:98:e9:6e:0d:d1:a3:18:cd:51:05:06:
        51:51:56:a3:13:f2:d0:1b:37:c2:cb:c3:ec:86:6b:93:0c:ec:
        03:d3:49:02:42:71:2e:0e:09:dd:f4:dc:8e:67:70:b8:d7:b6:
        04:6f:37:eb:50:0b:36:a5:2f:b1:d8:6d:96:d2:6f:98:56:f2:
        e2:c8
-----BEGIN CERTIFICATE-----
MIICSjCCAbMCAQMwDQYJKoZIhvcNAQEEBQAwgYYxHzAdBgNVBAoTFkNhdmlzc29u
IFN5c3RlbXMsIEluYy4xIDAeBgkqhkiG9w0BCQEWEWluZm9AY2F2aXNzb24uY29t
MRAwDgYDVQQHEwdGcmVtb250MRMwEQYDVQQIEwpDYWxpZm9ybmlhMQswCQYDVQQG
EwJVUzENMAsGA1UEAxMEUm9vdDAeFw0wOTA4MTExNDI3NDNaFw0xOTA4MDkxNDI3
NDNaMFQxCzAJBgNVBAYTAlVTMRMwEQYDVQQIEwpDYWxpZm9ybmlhMR8wHQYDVQQK
ExZDYXZpc3NvbiBTeXN0ZW1zLCBJbmMuMQ8wDQYDVQQDEwZTZXJ2ZXIwgZ8wDQYJ
KoZIhvcNAQEBBQADgY0AMIGJAoGBAMOed/bMXWTvWUkcKHbacOhQJ/eyWbzoOJ14
qCha2wYa9tiWhwCZKtJe/TQI6y5NM19541UCjwXr37NCtAd7Vip/ihUA/qigjida
uQ/ok+A6MMjWmVZut8G2aQXMTlpVXLgTcPwxXUHqxWBwB2ER4j/ODYzhQFvB1/Nj
PstTDr7vAgMBAAEwDQYJKoZIhvcNAQEEBQADgYEAf9fokF2sb/XpS4PQK82iUKj5
8U/e3XyHaviWEQBG4cQuuP2ap70W599Gs/L7C2Ppc5SawsY/kr/zp4HrgJjpbg3R
oxjNUQUGUVFWoxPy0Bs3wsvD7IZrkwzsA9NJAkJxLg4J3fTcjmdwuNe2BG8361AL
NqUvsdhtltJvmFby4sg=
-----END CERTIFICATE-----
